{
   <insert_a_suppression_name_here>
   Memcheck:Param
   writev(vector[...])
   fun:__writev
   fun:writev
   obj:/usr/lib/x86_64-linux-gnu/libxcb.so.1.1.0
   obj:/usr/lib/x86_64-linux-gnu/libxcb.so.1.1.0
   fun:xcb_flush
   obj:/usr/lib/x86_64-linux-gnu/libQt5XcbQpa.so.5.15.2
   fun:_ZN14QWindowPrivate11applyCursorEv
   fun:_ZN14QWindowPrivate9setCursorEPK7QCursor
   obj:/usr/lib/x86_64-linux-gnu/libQt5Widgets.so.5.15.2
   fun:_ZN7QWidget9setCursorERK7QCursor
   fun:_ZN7contour6opengl14TerminalWidget19setMouseCursorShapeENS_16MouseCursorShapeE
   fun:_ZN7contour15TerminalSession18sendCharPressEventEDiN8terminal8ModifierENSt6chrono10time_pointINS3_3_V212steady_clockENS3_8durationIlSt5ratioILl1ELl1000000000EEEEEE
   fun:_ZN7contour12sendKeyEventEP9QKeyEventRNS_15TerminalSessionE
   fun:_ZN7contour6opengl14TerminalWidget13keyPressEventEP9QKeyEvent
   fun:_ZN7QWidget5eventEP6QEvent
   fun:_ZN7contour6opengl14TerminalWidget5eventEP6QEvent
   fun:_ZN19QApplicationPrivate13notify_helperEP7QObjectP6QEvent
   fun:_ZN12QApplication6notifyEP7QObjectP6QEvent
   fun:_ZN16QCoreApplication15notifyInternal2EP7QObjectP6QEvent
   obj:/usr/lib/x86_64-linux-gnu/libQt5Widgets.so.5.15.2
   fun:_ZN19QApplicationPrivate13notify_helperEP7QObjectP6QEvent
   fun:_ZN16QCoreApplication15notifyInternal2EP7QObjectP6QEvent
   fun:_ZN22QGuiApplicationPrivate15processKeyEventEPN29QWindowSystemInterfacePrivate8KeyEventE
   obj:/usr/lib/x86_64-linux-gnu/qt5/plugins/platforminputcontexts/libibusplatforminputcontextplugin.so
   obj:/usr/lib/x86_64-linux-gnu/libQt5Core.so.5.15.2
   fun:_ZN23QDBusPendingCallWatcher8finishedEPS_
   fun:_ZN7QObject5eventEP6QEvent
   fun:_ZN19QApplicationPrivate13notify_helperEP7QObjectP6QEvent
   fun:_ZN16QCoreApplication15notifyInternal2EP7QObjectP6QEvent
   fun:_ZN23QCoreApplicationPrivate16sendPostedEventsEP7QObjectiP11QThreadData
   obj:/usr/lib/x86_64-linux-gnu/libQt5Core.so.5.15.2
   fun:g_main_context_dispatch
   obj:/usr/lib/x86_64-linux-gnu/libglib-2.0.so.0.6800.4
   fun:g_main_context_iteration
   fun:_ZN20QEventDispatcherGlib13processEventsE6QFlagsIN10QEventLoop17ProcessEventsFlagEE
   fun:_ZN10QEventLoop4execE6QFlagsINS_17ProcessEventsFlagEE
   fun:_ZN16QCoreApplication4execEv
   fun:_ZN7contour13ContourGuiApp17terminalGuiActionEv
   fun:_ZSt13__invoke_implIiRMN7contour13ContourGuiAppEFivERPS1_JEET_St21__invoke_memfun_derefOT0_OT1_DpOT2_
   fun:_ZSt8__invokeIRMN7contour13ContourGuiAppEFivEJRPS1_EENSt15__invoke_resultIT_JDpT0_EE4typeEOS8_DpOS9_
   fun:_ZNSt5_BindIFMN7contour13ContourGuiAppEFivEPS1_EE6__callIiJEJLm0EEEET_OSt5tupleIJDpT0_EESt12_Index_tupleIJXspT1_EEE
   fun:_ZNSt5_BindIFMN7contour13ContourGuiAppEFivEPS1_EEclIJEiEET0_DpOT_
   fun:_ZSt13__invoke_implIiRSt5_BindIFMN7contour13ContourGuiAppEFivEPS2_EEJEET_St14__invoke_otherOT0_DpOT1_
   fun:_ZSt10__invoke_rIiRSt5_BindIFMN7contour13ContourGuiAppEFivEPS2_EEJEENSt9enable_ifIX16is_invocable_r_vIT_T0_DpT1_EESA_E4typeEOSB_DpOSC_
   fun:_ZNSt17_Function_handlerIFivESt5_BindIFMN7contour13ContourGuiAppEFivEPS3_EEE9_M_invokeERKSt9_Any_data
   fun:_ZNKSt8functionIFivEEclEv
   fun:_ZN6crispy3App3runEiPPKc
   fun:_ZN7contour13ContourGuiApp3runEiPPKc
   fun:main
}

{
   <insert_a_suppression_name_here>
   Memcheck:Leak
   match-leak-kinds: definite
   fun:malloc
   obj:/usr/lib/x86_64-linux-gnu/libfontconfig.so.1.12.0
   fun:FcConfigFilename
   obj:/usr/lib/x86_64-linux-gnu/libfontconfig.so.1.12.0
   obj:/usr/lib/x86_64-linux-gnu/libfontconfig.so.1.12.0
   obj:/usr/lib/x86_64-linux-gnu/libexpat.so.1.8.1
   obj:/usr/lib/x86_64-linux-gnu/libexpat.so.1.8.1
   obj:/usr/lib/x86_64-linux-gnu/libexpat.so.1.8.1
   fun:XML_ParseBuffer
   obj:/usr/lib/x86_64-linux-gnu/libfontconfig.so.1.12.0
   obj:/usr/lib/x86_64-linux-gnu/libfontconfig.so.1.12.0
   obj:/usr/lib/x86_64-linux-gnu/libfontconfig.so.1.12.0
   obj:/usr/lib/x86_64-linux-gnu/libfontconfig.so.1.12.0
   obj:/usr/lib/x86_64-linux-gnu/libexpat.so.1.8.1
   obj:/usr/lib/x86_64-linux-gnu/libexpat.so.1.8.1
   obj:/usr/lib/x86_64-linux-gnu/libexpat.so.1.8.1
   fun:XML_ParseBuffer
   obj:/usr/lib/x86_64-linux-gnu/libfontconfig.so.1.12.0
   obj:/usr/lib/x86_64-linux-gnu/libfontconfig.so.1.12.0
   obj:/usr/lib/x86_64-linux-gnu/libfontconfig.so.1.12.0
   fun:FcInitLoadConfigAndFonts
   obj:/usr/lib/x86_64-linux-gnu/libfontconfig.so.1.12.0
   fun:_ZN4text18fontconfig_locator7PrivateC1Ev
   fun:_ZN4text18fontconfig_locatorC1Ev
   fun:_ZSt11make_uniqueIN4text18fontconfig_locatorEJEENSt9_MakeUniqIT_E15__single_objectEDpOT0_
   fun:_ZN8terminal8renderer17createFontLocatorENS0_17FontLocatorEngineE
   fun:_ZN8terminal8renderer8RendererC1ENS_8PageSizeERKNS0_16FontDescriptionsERKNS_12ColorPaletteENS_7OpacityENS0_9DecoratorESA_
   fun:_ZN7contour6opengl14TerminalWidgetC1ERKNS_6config15TerminalProfileERNS_15TerminalSessionESt8functionIFvvEES8_IFvbEE
   fun:_ZSt11make_uniqueIN7contour6opengl14TerminalWidgetEJRKNS0_6config15TerminalProfileERNS0_15TerminalSessionEZNS0_14TerminalWindowC4ENSt6chrono8durationIlSt5ratioILl1ELl1EEEENS3_6ConfigEbNSt7__cxx1112basic_stringIcSt11char_traitsIcESaIcEEESL_RNS0_13ContourGuiAppEEUlvE2_ZNS9_C4ESE_SF_bSL_SL_SN_EUlbE3_EENSt9_MakeUniqIT_E15__single_objectEDpOT0_
   fun:_ZN7contour14TerminalWindowC1ENSt6chrono8durationIlSt5ratioILl1ELl1EEEENS_6config6ConfigEbNSt7__cxx1112basic_stringIcSt11char_traitsIcESaIcEEESD_RNS_13ContourGuiAppE
   fun:_ZSt11make_uniqueIN7contour14TerminalWindowEJNSt6chrono8durationIlSt5ratioILl1ELl1EEEERNS0_6config6ConfigERKbNSt7__cxx1112basic_stringIcSt11char_traitsIcESaIcEEERPKcRNS0_13ContourGuiAppEEENSt9_MakeUniqIT_E15__single_objectEDpOT0_
   fun:_ZN7contour13ContourGuiApp9newWindowEv
   fun:_ZN7contour13ContourGuiApp17terminalGuiActionEv
   fun:_ZSt13__invoke_implIiRMN7contour13ContourGuiAppEFivERPS1_JEET_St21__invoke_memfun_derefOT0_OT1_DpOT2_
   fun:_ZSt8__invokeIRMN7contour13ContourGuiAppEFivEJRPS1_EENSt15__invoke_resultIT_JDpT0_EE4typeEOS8_DpOS9_
   fun:_ZNSt5_BindIFMN7contour13ContourGuiAppEFivEPS1_EE6__callIiJEJLm0EEEET_OSt5tupleIJDpT0_EESt12_Index_tupleIJXspT1_EEE
   fun:_ZNSt5_BindIFMN7contour13ContourGuiAppEFivEPS1_EEclIJEiEET0_DpOT_
   fun:_ZSt13__invoke_implIiRSt5_BindIFMN7contour13ContourGuiAppEFivEPS2_EEJEET_St14__invoke_otherOT0_DpOT1_
   fun:_ZSt10__invoke_rIiRSt5_BindIFMN7contour13ContourGuiAppEFivEPS2_EEJEENSt9enable_ifIX16is_invocable_r_vIT_T0_DpT1_EESA_E4typeEOSB_DpOSC_
   fun:_ZNSt17_Function_handlerIFivESt5_BindIFMN7contour13ContourGuiAppEFivEPS3_EEE9_M_invokeERKSt9_Any_data
   fun:_ZNKSt8functionIFivEEclEv
   fun:_ZN6crispy3App3runEiPPKc
   fun:_ZN7contour13ContourGuiApp3runEiPPKc
   fun:main
}
{
   <insert_a_suppression_name_here>
   Memcheck:Leak
   match-leak-kinds: definite
   fun:malloc
   obj:/usr/lib/x86_64-linux-gnu/libfontconfig.so.1.12.0
   fun:FcConfigFilename
   obj:/usr/lib/x86_64-linux-gnu/libfontconfig.so.1.12.0
   obj:/usr/lib/x86_64-linux-gnu/libexpat.so.1.8.1
   obj:/usr/lib/x86_64-linux-gnu/libexpat.so.1.8.1
   obj:/usr/lib/x86_64-linux-gnu/libexpat.so.1.8.1
   fun:XML_ParseBuffer
   obj:/usr/lib/x86_64-linux-gnu/libfontconfig.so.1.12.0
   obj:/usr/lib/x86_64-linux-gnu/libfontconfig.so.1.12.0
   obj:/usr/lib/x86_64-linux-gnu/libfontconfig.so.1.12.0
   obj:/usr/lib/x86_64-linux-gnu/libfontconfig.so.1.12.0
   obj:/usr/lib/x86_64-linux-gnu/libexpat.so.1.8.1
   obj:/usr/lib/x86_64-linux-gnu/libexpat.so.1.8.1
   obj:/usr/lib/x86_64-linux-gnu/libexpat.so.1.8.1
   fun:XML_ParseBuffer
   obj:/usr/lib/x86_64-linux-gnu/libfontconfig.so.1.12.0
   obj:/usr/lib/x86_64-linux-gnu/libfontconfig.so.1.12.0
   obj:/usr/lib/x86_64-linux-gnu/libfontconfig.so.1.12.0
   fun:FcInitLoadConfigAndFonts
   obj:/usr/lib/x86_64-linux-gnu/libfontconfig.so.1.12.0
   fun:_ZN4text18fontconfig_locator7PrivateC1Ev
   fun:_ZN4text18fontconfig_locatorC1Ev
   fun:_ZSt11make_uniqueIN4text18fontconfig_locatorEJEENSt9_MakeUniqIT_E15__single_objectEDpOT0_
   fun:_ZN8terminal8renderer17createFontLocatorENS0_17FontLocatorEngineE
   fun:_ZN8terminal8renderer8RendererC1ENS_8PageSizeERKNS0_16FontDescriptionsERKNS_12ColorPaletteENS_7OpacityENS0_9DecoratorESA_
   fun:_ZN7contour6opengl14TerminalWidgetC1ERKNS_6config15TerminalProfileERNS_15TerminalSessionESt8functionIFvvEES8_IFvbEE
   fun:_ZSt11make_uniqueIN7contour6opengl14TerminalWidgetEJRKNS0_6config15TerminalProfileERNS0_15TerminalSessionEZNS0_14TerminalWindowC4ENSt6chrono8durationIlSt5ratioILl1ELl1EEEENS3_6ConfigEbNSt7__cxx1112basic_stringIcSt11char_traitsIcESaIcEEESL_RNS0_13ContourGuiAppEEUlvE2_ZNS9_C4ESE_SF_bSL_SL_SN_EUlbE3_EENSt9_MakeUniqIT_E15__single_objectEDpOT0_
   fun:_ZN7contour14TerminalWindowC1ENSt6chrono8durationIlSt5ratioILl1ELl1EEEENS_6config6ConfigEbNSt7__cxx1112basic_stringIcSt11char_traitsIcESaIcEEESD_RNS_13ContourGuiAppE
   fun:_ZSt11make_uniqueIN7contour14TerminalWindowEJNSt6chrono8durationIlSt5ratioILl1ELl1EEEERNS0_6config6ConfigERKbNSt7__cxx1112basic_stringIcSt11char_traitsIcESaIcEEERPKcRNS0_13ContourGuiAppEEENSt9_MakeUniqIT_E15__single_objectEDpOT0_
   fun:_ZN7contour13ContourGuiApp9newWindowEv
   fun:_ZN7contour13ContourGuiApp17terminalGuiActionEv
   fun:_ZSt13__invoke_implIiRMN7contour13ContourGuiAppEFivERPS1_JEET_St21__invoke_memfun_derefOT0_OT1_DpOT2_
   fun:_ZSt8__invokeIRMN7contour13ContourGuiAppEFivEJRPS1_EENSt15__invoke_resultIT_JDpT0_EE4typeEOS8_DpOS9_
   fun:_ZNSt5_BindIFMN7contour13ContourGuiAppEFivEPS1_EE6__callIiJEJLm0EEEET_OSt5tupleIJDpT0_EESt12_Index_tupleIJXspT1_EEE
   fun:_ZNSt5_BindIFMN7contour13ContourGuiAppEFivEPS1_EEclIJEiEET0_DpOT_
   fun:_ZSt13__invoke_implIiRSt5_BindIFMN7contour13ContourGuiAppEFivEPS2_EEJEET_St14__invoke_otherOT0_DpOT1_
   fun:_ZSt10__invoke_rIiRSt5_BindIFMN7contour13ContourGuiAppEFivEPS2_EEJEENSt9enable_ifIX16is_invocable_r_vIT_T0_DpT1_EESA_E4typeEOSB_DpOSC_
   fun:_ZNSt17_Function_handlerIFivESt5_BindIFMN7contour13ContourGuiAppEFivEPS3_EEE9_M_invokeERKSt9_Any_data
   fun:_ZNKSt8functionIFivEEclEv
   fun:_ZN6crispy3App3runEiPPKc
   fun:_ZN7contour13ContourGuiApp3runEiPPKc
   fun:main
}

{
   <insert_a_suppression_name_here>
   Memcheck:Leak
   match-leak-kinds: definite
   fun:malloc
   obj:/usr/lib/x86_64-linux-gnu/libfontconfig.so.1.12.0
   fun:FcConfigFilename
   obj:/usr/lib/x86_64-linux-gnu/libfontconfig.so.1.12.0
   obj:/usr/lib/x86_64-linux-gnu/libfontconfig.so.1.12.0
   obj:/usr/lib/x86_64-linux-gnu/libexpat.so.1.8.1
   obj:/usr/lib/x86_64-linux-gnu/libexpat.so.1.8.1
   obj:/usr/lib/x86_64-linux-gnu/libexpat.so.1.8.1
   fun:XML_ParseBuffer
   obj:/usr/lib/x86_64-linux-gnu/libfontconfig.so.1.12.0
   obj:/usr/lib/x86_64-linux-gnu/libfontconfig.so.1.12.0
   obj:/usr/lib/x86_64-linux-gnu/libfontconfig.so.1.12.0
   obj:/usr/lib/x86_64-linux-gnu/libfontconfig.so.1.12.0
   obj:/usr/lib/x86_64-linux-gnu/libexpat.so.1.8.1
   obj:/usr/lib/x86_64-linux-gnu/libexpat.so.1.8.1
   obj:/usr/lib/x86_64-linux-gnu/libexpat.so.1.8.1
   fun:XML_ParseBuffer
   obj:/usr/lib/x86_64-linux-gnu/libfontconfig.so.1.12.0
   obj:/usr/lib/x86_64-linux-gnu/libfontconfig.so.1.12.0
   obj:/usr/lib/x86_64-linux-gnu/libfontconfig.so.1.12.0
   fun:FcInitLoadConfigAndFonts
   fun:_ZN4text18fontconfig_locator7PrivateC1Ev
   fun:_ZN4text18fontconfig_locatorC1Ev
   fun:_ZSt11make_uniqueIN4text18fontconfig_locatorEJEENSt9_MakeUniqIT_E15__single_objectEDpOT0_
   fun:_ZN8terminal8renderer17createFontLocatorENS0_17FontLocatorEngineE
   fun:_ZN8terminal8renderer8RendererC1ENS_8PageSizeERKNS0_16FontDescriptionsERKNS_12ColorPaletteENS_7OpacityENS0_9DecoratorESA_
   fun:_ZN7contour6opengl14TerminalWidgetC1ERKNS_6config15TerminalProfileERNS_15TerminalSessionESt8functionIFvvEES8_IFvbEE
   fun:_ZSt11make_uniqueIN7contour6opengl14TerminalWidgetEJRKNS0_6config15TerminalProfileERNS0_15TerminalSessionEZNS0_14TerminalWindowC4ENSt6chrono8durationIlSt5ratioILl1ELl1EEEENS3_6ConfigEbNSt7__cxx1112basic_stringIcSt11char_traitsIcESaIcEEESL_RNS0_13ContourGuiAppEEUlvE2_ZNS9_C4ESE_SF_bSL_SL_SN_EUlbE3_EENSt9_MakeUniqIT_E15__single_objectEDpOT0_
   fun:_ZN7contour14TerminalWindowC1ENSt6chrono8durationIlSt5ratioILl1ELl1EEEENS_6config6ConfigEbNSt7__cxx1112basic_stringIcSt11char_traitsIcESaIcEEESD_RNS_13ContourGuiAppE
   fun:_ZSt11make_uniqueIN7contour14TerminalWindowEJNSt6chrono8durationIlSt5ratioILl1ELl1EEEERNS0_6config6ConfigERKbNSt7__cxx1112basic_stringIcSt11char_traitsIcESaIcEEERPKcRNS0_13ContourGuiAppEEENSt9_MakeUniqIT_E15__single_objectEDpOT0_
   fun:_ZN7contour13ContourGuiApp9newWindowEv
   fun:_ZN7contour13ContourGuiApp17terminalGuiActionEv
   fun:_ZSt13__invoke_implIiRMN7contour13ContourGuiAppEFivERPS1_JEET_St21__invoke_memfun_derefOT0_OT1_DpOT2_
   fun:_ZSt8__invokeIRMN7contour13ContourGuiAppEFivEJRPS1_EENSt15__invoke_resultIT_JDpT0_EE4typeEOS8_DpOS9_
   fun:_ZNSt5_BindIFMN7contour13ContourGuiAppEFivEPS1_EE6__callIiJEJLm0EEEET_OSt5tupleIJDpT0_EESt12_Index_tupleIJXspT1_EEE
   fun:_ZNSt5_BindIFMN7contour13ContourGuiAppEFivEPS1_EEclIJEiEET0_DpOT_
   fun:_ZSt13__invoke_implIiRSt5_BindIFMN7contour13ContourGuiAppEFivEPS2_EEJEET_St14__invoke_otherOT0_DpOT1_
   fun:_ZSt10__invoke_rIiRSt5_BindIFMN7contour13ContourGuiAppEFivEPS2_EEJEENSt9enable_ifIX16is_invocable_r_vIT_T0_DpT1_EESA_E4typeEOSB_DpOSC_
   fun:_ZNSt17_Function_handlerIFivESt5_BindIFMN7contour13ContourGuiAppEFivEPS3_EEE9_M_invokeERKSt9_Any_data
   fun:_ZNKSt8functionIFivEEclEv
   fun:_ZN6crispy3App3runEiPPKc
   fun:_ZN7contour13ContourGuiApp3runEiPPKc
   fun:main
}

{
   <insert_a_suppression_name_here>
   Memcheck:Leak
   match-leak-kinds: definite
   fun:malloc
   obj:/usr/lib/x86_64-linux-gnu/libfontconfig.so.1.12.0
   fun:FcConfigFilename
   obj:/usr/lib/x86_64-linux-gnu/libfontconfig.so.1.12.0
   obj:/usr/lib/x86_64-linux-gnu/libexpat.so.1.8.1
   obj:/usr/lib/x86_64-linux-gnu/libexpat.so.1.8.1
   obj:/usr/lib/x86_64-linux-gnu/libexpat.so.1.8.1
   fun:XML_ParseBuffer
   obj:/usr/lib/x86_64-linux-gnu/libfontconfig.so.1.12.0
   obj:/usr/lib/x86_64-linux-gnu/libfontconfig.so.1.12.0
   obj:/usr/lib/x86_64-linux-gnu/libfontconfig.so.1.12.0
   obj:/usr/lib/x86_64-linux-gnu/libfontconfig.so.1.12.0
   obj:/usr/lib/x86_64-linux-gnu/libexpat.so.1.8.1
   obj:/usr/lib/x86_64-linux-gnu/libexpat.so.1.8.1
   obj:/usr/lib/x86_64-linux-gnu/libexpat.so.1.8.1
   fun:XML_ParseBuffer
   obj:/usr/lib/x86_64-linux-gnu/libfontconfig.so.1.12.0
   obj:/usr/lib/x86_64-linux-gnu/libfontconfig.so.1.12.0
   obj:/usr/lib/x86_64-linux-gnu/libfontconfig.so.1.12.0
   fun:FcInitLoadConfigAndFonts
   fun:_ZN4text18fontconfig_locator7PrivateC1Ev
   fun:_ZN4text18fontconfig_locatorC1Ev
   fun:_ZSt11make_uniqueIN4text18fontconfig_locatorEJEENSt9_MakeUniqIT_E15__single_objectEDpOT0_
   fun:_ZN8terminal8renderer17createFontLocatorENS0_17FontLocatorEngineE
   fun:_ZN8terminal8renderer8RendererC1ENS_8PageSizeERKNS0_16FontDescriptionsERKNS_12ColorPaletteENS_7OpacityENS0_9DecoratorESA_
   fun:_ZN7contour6opengl14TerminalWidgetC1ERKNS_6config15TerminalProfileERNS_15TerminalSessionESt8functionIFvvEES8_IFvbEE
   fun:_ZSt11make_uniqueIN7contour6opengl14TerminalWidgetEJRKNS0_6config15TerminalProfileERNS0_15TerminalSessionEZNS0_14TerminalWindowC4ENSt6chrono8durationIlSt5ratioILl1ELl1EEEENS3_6ConfigEbNSt7__cxx1112basic_stringIcSt11char_traitsIcESaIcEEESL_RNS0_13ContourGuiAppEEUlvE2_ZNS9_C4ESE_SF_bSL_SL_SN_EUlbE3_EENSt9_MakeUniqIT_E15__single_objectEDpOT0_
   fun:_ZN7contour14TerminalWindowC1ENSt6chrono8durationIlSt5ratioILl1ELl1EEEENS_6config6ConfigEbNSt7__cxx1112basic_stringIcSt11char_traitsIcESaIcEEESD_RNS_13ContourGuiAppE
   fun:_ZSt11make_uniqueIN7contour14TerminalWindowEJNSt6chrono8durationIlSt5ratioILl1ELl1EEEERNS0_6config6ConfigERKbNSt7__cxx1112basic_stringIcSt11char_traitsIcESaIcEEERPKcRNS0_13ContourGuiAppEEENSt9_MakeUniqIT_E15__single_objectEDpOT0_
   fun:_ZN7contour13ContourGuiApp9newWindowEv
   fun:_ZN7contour13ContourGuiApp17terminalGuiActionEv
   fun:_ZSt13__invoke_implIiRMN7contour13ContourGuiAppEFivERPS1_JEET_St21__invoke_memfun_derefOT0_OT1_DpOT2_
   fun:_ZSt8__invokeIRMN7contour13ContourGuiAppEFivEJRPS1_EENSt15__invoke_resultIT_JDpT0_EE4typeEOS8_DpOS9_
   fun:_ZNSt5_BindIFMN7contour13ContourGuiAppEFivEPS1_EE6__callIiJEJLm0EEEET_OSt5tupleIJDpT0_EESt12_Index_tupleIJXspT1_EEE
   fun:_ZNSt5_BindIFMN7contour13ContourGuiAppEFivEPS1_EEclIJEiEET0_DpOT_
   fun:_ZSt13__invoke_implIiRSt5_BindIFMN7contour13ContourGuiAppEFivEPS2_EEJEET_St14__invoke_otherOT0_DpOT1_
   fun:_ZSt10__invoke_rIiRSt5_BindIFMN7contour13ContourGuiAppEFivEPS2_EEJEENSt9enable_ifIX16is_invocable_r_vIT_T0_DpT1_EESA_E4typeEOSB_DpOSC_
   fun:_ZNSt17_Function_handlerIFivESt5_BindIFMN7contour13ContourGuiAppEFivEPS3_EEE9_M_invokeERKSt9_Any_data
   fun:_ZNKSt8functionIFivEEclEv
   fun:_ZN6crispy3App3runEiPPKc
   fun:_ZN7contour13ContourGuiApp3runEiPPKc
   fun:main
}

{
   <insert_a_suppression_name_here>
   Memcheck:Leak
   match-leak-kinds: possible
   fun:calloc
   fun:calloc
   fun:allocate_dtv
   fun:_dl_allocate_tls
   fun:allocate_stack
   fun:pthread_create@@GLIBC_2.34
   fun:_ZN7QThread5startENS_8PriorityE
   fun:_ZN15QDBusConnection12connectToBusERK7QStringS2_
   obj:/usr/lib/x86_64-linux-gnu/qt5/plugins/platforminputcontexts/libibusplatforminputcontextplugin.so
   obj:/usr/lib/x86_64-linux-gnu/qt5/plugins/platforminputcontexts/libibusplatforminputcontextplugin.so
   obj:/usr/lib/x86_64-linux-gnu/qt5/plugins/platforminputcontexts/libibusplatforminputcontextplugin.so
   obj:/usr/lib/x86_64-linux-gnu/qt5/plugins/platforminputcontexts/libibusplatforminputcontextplugin.so
   fun:_ZN28QPlatformInputContextFactory6createERK7QString
   fun:_ZN15QXcbIntegration10initializeEv
   fun:_ZN22QGuiApplicationPrivate20eventDispatcherReadyEv
   fun:_ZN23QCoreApplicationPrivate4initEv
   fun:_ZN22QGuiApplicationPrivate4initEv
   fun:_ZN19QApplicationPrivate4initEv
   fun:_ZN7contour13ContourGuiApp17terminalGuiActionEv
   fun:_ZSt13__invoke_implIiRMN7contour13ContourGuiAppEFivERPS1_JEET_St21__invoke_memfun_derefOT0_OT1_DpOT2_
   fun:_ZSt8__invokeIRMN7contour13ContourGuiAppEFivEJRPS1_EENSt15__invoke_resultIT_JDpT0_EE4typeEOS8_DpOS9_
   fun:_ZNSt5_BindIFMN7contour13ContourGuiAppEFivEPS1_EE6__callIiJEJLm0EEEET_OSt5tupleIJDpT0_EESt12_Index_tupleIJXspT1_EEE
   fun:_ZNSt5_BindIFMN7contour13ContourGuiAppEFivEPS1_EEclIJEiEET0_DpOT_
   fun:_ZSt13__invoke_implIiRSt5_BindIFMN7contour13ContourGuiAppEFivEPS2_EEJEET_St14__invoke_otherOT0_DpOT1_
   fun:_ZSt10__invoke_rIiRSt5_BindIFMN7contour13ContourGuiAppEFivEPS2_EEJEENSt9enable_ifIX16is_invocable_r_vIT_T0_DpT1_EESA_E4typeEOSB_DpOSC_
   fun:_ZNSt17_Function_handlerIFivESt5_BindIFMN7contour13ContourGuiAppEFivEPS3_EEE9_M_invokeERKSt9_Any_data
   fun:_ZNKSt8functionIFivEEclEv
   fun:_ZN6crispy3App3runEiPPKc
   fun:_ZN7contour13ContourGuiApp3runEiPPKc
   fun:main
}
